target datalayout = "e-m:e-p270:32:32-p271:32:32-p272:64:64-i64:64-i128:128-f80:128-n8:16:32:64-S128"
target triple = "x86_64-pc-linux-gnu"

%struct.AVFilterContext = type { ptr, ptr, ptr, ptr, ptr, i32, ptr, ptr, i32, ptr, ptr, i32, i32, ptr, ptr, ptr, ptr, i32, ptr, i32, i32 }
%struct.MBContext = type { ptr, i32, i32, %struct.AVRational, i64, i32, double, double, double, double, double, double, i32, i32, i32, i32, ptr, ptr, ptr, i32, double, double, double }
%struct.AVRational = type { i32, i32 }

; Function Attrs: cold nounwind optsize uwtable
define internal i32 @init(ptr noundef %0) #0 {
  %2 = alloca i32, align 4
  %3 = alloca ptr, align 8
  %4 = alloca ptr, align 8
  %5 = alloca i32, align 4
  store ptr %0, ptr %3, align 8, !tbaa !4
  call void @llvm.lifetime.start.p0(i64 8, ptr %4) #9
  %6 = load ptr, ptr %3, align 8, !tbaa !4
  %7 = getelementptr inbounds nuw %struct.AVFilterContext, ptr %6, i32 0, i32 9
  %8 = load ptr, ptr %7, align 8, !tbaa !9
  store ptr %8, ptr %4, align 8, !tbaa !22
  %9 = load ptr, ptr %4, align 8, !tbaa !22
  %10 = getelementptr inbounds nuw %struct.MBContext, ptr %9, i32 0, i32 11
  %11 = load double, ptr %10, align 8, !tbaa !24
  %12 = load ptr, ptr %4, align 8, !tbaa !22
  %13 = getelementptr inbounds nuw %struct.MBContext, ptr %12, i32 0, i32 11
  %14 = load double, ptr %13, align 8, !tbaa !24
  %15 = fmul nsz double %14, %11
  store double %15, ptr %13, align 8, !tbaa !24
  %16 = load ptr, ptr %4, align 8, !tbaa !22
  %17 = getelementptr inbounds nuw %struct.MBContext, ptr %16, i32 0, i32 2
  %18 = load i32, ptr %17, align 4, !tbaa !30
  %19 = sitofp i32 %18 to double
  %20 = load ptr, ptr %4, align 8, !tbaa !22
  %21 = getelementptr inbounds nuw %struct.MBContext, ptr %20, i32 0, i32 8
  %22 = load double, ptr %21, align 8, !tbaa !31
  %23 = fdiv nsz double %22, %19
  store double %23, ptr %21, align 8, !tbaa !31
  %24 = load ptr, ptr %4, align 8, !tbaa !22
  %25 = getelementptr inbounds nuw %struct.MBContext, ptr %24, i32 0, i32 2
  %26 = load i32, ptr %25, align 4, !tbaa !30
  %27 = sitofp i32 %26 to double
  %28 = load ptr, ptr %4, align 8, !tbaa !22
  %29 = getelementptr inbounds nuw %struct.MBContext, ptr %28, i32 0, i32 9
  %30 = load double, ptr %29, align 8, !tbaa !32
  %31 = fdiv nsz double %30, %27
  store double %31, ptr %29, align 8, !tbaa !32
  %32 = load ptr, ptr %4, align 8, !tbaa !22
  %33 = getelementptr inbounds nuw %struct.MBContext, ptr %32, i32 0, i32 1
  %34 = load i32, ptr %33, align 8, !tbaa !33
  %35 = load ptr, ptr %4, align 8, !tbaa !22
  %36 = getelementptr inbounds nuw %struct.MBContext, ptr %35, i32 0, i32 2
  %37 = load i32, ptr %36, align 4, !tbaa !30
  %38 = mul nsw i32 %34, %37
  %39 = mul nsw i32 %38, 3
  %40 = load ptr, ptr %4, align 8, !tbaa !22
  %41 = getelementptr inbounds nuw %struct.MBContext, ptr %40, i32 0, i32 14
  store i32 %39, ptr %41, align 8, !tbaa !34
  %42 = load ptr, ptr %4, align 8, !tbaa !22
  %43 = getelementptr inbounds nuw %struct.MBContext, ptr %42, i32 0, i32 15
  store i32 0, ptr %43, align 4, !tbaa !35
  %44 = load ptr, ptr %4, align 8, !tbaa !22
  %45 = getelementptr inbounds nuw %struct.MBContext, ptr %44, i32 0, i32 14
  %46 = load i32, ptr %45, align 8, !tbaa !34
  %47 = sext i32 %46 to i64
  %48 = call ptr @av_malloc_array(i64 noundef %47, i64 noundef 24)
  %49 = load ptr, ptr %4, align 8, !tbaa !22
  %50 = getelementptr inbounds nuw %struct.MBContext, ptr %49, i32 0, i32 16
  store ptr %48, ptr %50, align 8, !tbaa !36
  %51 = load ptr, ptr %4, align 8, !tbaa !22
  %52 = getelementptr inbounds nuw %struct.MBContext, ptr %51, i32 0, i32 14
  %53 = load i32, ptr %52, align 8, !tbaa !34
  %54 = sext i32 %53 to i64
  %55 = call ptr @av_malloc_array(i64 noundef %54, i64 noundef 24)
  %56 = load ptr, ptr %4, align 8, !tbaa !22
  %57 = getelementptr inbounds nuw %struct.MBContext, ptr %56, i32 0, i32 17
  store ptr %55, ptr %57, align 8, !tbaa !37
  %58 = load ptr, ptr %4, align 8, !tbaa !22
  %59 = getelementptr inbounds nuw %struct.MBContext, ptr %58, i32 0, i32 5
  %60 = load i32, ptr %59, align 8, !tbaa !38
  %61 = add nsw i32 %60, 16
  %62 = sext i32 %61 to i64
  %63 = call ptr @av_malloc_array(i64 noundef %62, i64 noundef 16)
  %64 = load ptr, ptr %4, align 8, !tbaa !22
  %65 = getelementptr inbounds nuw %struct.MBContext, ptr %64, i32 0, i32 18
  store ptr %63, ptr %65, align 8, !tbaa !39
  %66 = load ptr, ptr %4, align 8, !tbaa !22
  %67 = getelementptr inbounds nuw %struct.MBContext, ptr %66, i32 0, i32 16
  %68 = load ptr, ptr %67, align 8, !tbaa !36
  %69 = icmp ne ptr %68, null
  br i1 %69, label %70, label %80

70:                                               ; preds = %1
  %71 = load ptr, ptr %4, align 8, !tbaa !22
  %72 = getelementptr inbounds nuw %struct.MBContext, ptr %71, i32 0, i32 17
  %73 = load ptr, ptr %72, align 8, !tbaa !37
  %74 = icmp ne ptr %73, null
  br i1 %74, label %75, label %80

75:                                               ; preds = %70
  %76 = load ptr, ptr %4, align 8, !tbaa !22
  %77 = getelementptr inbounds nuw %struct.MBContext, ptr %76, i32 0, i32 18
  %78 = load ptr, ptr %77, align 8, !tbaa !39
  %79 = icmp ne ptr %78, null
  br i1 %79, label %81, label %80

80:                                               ; preds = %75, %70, %1
  store i32 -12, ptr %2, align 4
  store i32 1, ptr %5, align 4
  br label %82

81:                                               ; preds = %75
  store i32 0, ptr %2, align 4
  store i32 1, ptr %5, align 4
  br label %82

82:                                               ; preds = %81, %80
  call void @llvm.lifetime.end.p0(i64 8, ptr %4) #9
  %83 = load i32, ptr %2, align 4
  ret i32 %83
}