; Function Attrs: cold nounwind optsize uwtable
define internal range(i32 -12, 1) i32 @init(ptr noundef readonly captures(none) %0) #0 {
  %2 = getelementptr inbounds nuw i8, ptr %0, i64 72
  %3 = load ptr, ptr %2, align 8, !tbaa !4
  %4 = getelementptr inbounds nuw i8, ptr %3, i64 80
  %5 = load double, ptr %4, align 8, !tbaa !20
  %6 = fmul nsz double %5, %5
  store double %6, ptr %4, align 8, !tbaa !20
  %7 = getelementptr inbounds nuw i8, ptr %3, i64 12
  %8 = load i32, ptr %7, align 4, !tbaa !26
  %9 = sitofp i32 %8 to double
  %10 = getelementptr inbounds nuw i8, ptr %3, i64 56
  %11 = load double, ptr %10, align 8, !tbaa !27
  %12 = fdiv nsz double %11, %9
  store double %12, ptr %10, align 8, !tbaa !27
  %13 = getelementptr inbounds nuw i8, ptr %3, i64 64
  %14 = load double, ptr %13, align 8, !tbaa !28
  %15 = fdiv nsz double %14, %9
  store double %15, ptr %13, align 8, !tbaa !28
  %16 = getelementptr inbounds nuw i8, ptr %3, i64 8
  %17 = load i32, ptr %16, align 8, !tbaa !29
  %18 = mul i32 %8, 3
  %19 = mul i32 %18, %17
  %20 = getelementptr inbounds nuw i8, ptr %3, i64 96
  store i32 %19, ptr %20, align 8, !tbaa !30
  %21 = getelementptr inbounds nuw i8, ptr %3, i64 100
  store i32 0, ptr %21, align 4, !tbaa !31
  %22 = sext i32 %19 to i64
  %23 = tail call ptr @av_malloc_array(i64 noundef %22, i64 noundef 24) #7
  %24 = getelementptr inbounds nuw i8, ptr %3, i64 104
  store ptr %23, ptr %24, align 8, !tbaa !32
  %25 = load i32, ptr %20, align 8, !tbaa !30
  %26 = sext i32 %25 to i64
  %27 = tail call ptr @av_malloc_array(i64 noundef %26, i64 noundef 24) #7
  %28 = getelementptr inbounds nuw i8, ptr %3, i64 112
  store ptr %27, ptr %28, align 8, !tbaa !33
  %29 = getelementptr inbounds nuw i8, ptr %3, i64 32
  %30 = load i32, ptr %29, align 8, !tbaa !34
  %31 = add nsw i32 %30, 16
  %32 = sext i32 %31 to i64
  %33 = tail call ptr @av_malloc_array(i64 noundef %32, i64 noundef 16) #7
  %34 = getelementptr inbounds nuw i8, ptr %3, i64 120
  store ptr %33, ptr %34, align 8, !tbaa !35
  %35 = load ptr, ptr %24, align 8, !tbaa !32
  %.not = icmp eq ptr %35, null
  br i1 %.not, label %38, label %36

36:                                               ; preds = %1
  %37 = load ptr, ptr %28, align 8, !tbaa !33
  %.not20 = icmp eq ptr %37, null
  %.not21 = icmp eq ptr %33, null
  %or.cond = select i1 %.not20, i1 true, i1 %.not21
  %spec.select = select i1 %or.cond, i32 -12, i32 0
  br label %38

38:                                               ; preds = %36, %1
  %.0 = phi i32 [ -12, %1 ], [ %spec.select, %36 ]
  ret i32 %.0
}